target datalayout = "e-m:e-p270:32:32-p271:32:32-p272:64:64-i64:64-i128:128-f80:128-n8:16:32:64-S128"
target triple = "x86_64-pc-linux-gnu"

%struct.Cut_ManStruct_t_ = type { ptr, ptr, ptr, ptr, ptr, ptr, ptr, i32, i32, ptr, ptr, i32, i32, i32, i32, [2 x ptr], [2 x ptr], ptr, ptr, [4 x ptr], ptr, ptr, ptr, ptr, ptr, ptr, i32, i32, i32, i32, i32, i32, i32, i32, i32, i32, i32, i64, i64, i64, i64, i64, i64 }
%struct.Cut_OracleStruct_t_ = type { ptr, ptr, i32, ptr, ptr, ptr, ptr, ptr, ptr, ptr, i32, i32, i64, i32, i32 }
%struct.Cut_ParamsStruct_t_ = type { i32, i32, i32, i32, i32, i32, i32, i32, i32, i32, i32, i32, i32, i32, i32, i32, i32, i32, i32, i32 }
%struct.Vec_Ptr_t_ = type { i32, i32, ptr }

@.str = private unnamed_addr constant [61 x i8] c"Skipping computation of truth table for more than 8 inputs.\0A\00", align 1

; Function Attrs: inlinehint nounwind uwtable
define internal void @Vec_PtrGrow(ptr noundef %0, i32 noundef %1) #4 {
  %3 = alloca ptr, align 8
  %4 = alloca i32, align 4
  store ptr %0, ptr %3, align 8, !tbaa !38
  store i32 %1, ptr %4, align 4, !tbaa !37
  %5 = load ptr, ptr %3, align 8, !tbaa !38
  %6 = getelementptr inbounds nuw %struct.Vec_Ptr_t_, ptr %5, i32 0, i32 0
  %7 = load i32, ptr %6, align 8, !tbaa !41
  %8 = load i32, ptr %4, align 4, !tbaa !37
  %9 = icmp sge i32 %7, %8
  br i1 %9, label %10, label %11

10:                                               ; preds = %2
  br label %36

11:                                               ; preds = %2
  %12 = load ptr, ptr %3, align 8, !tbaa !38
  %13 = getelementptr inbounds nuw %struct.Vec_Ptr_t_, ptr %12, i32 0, i32 2
  %14 = load ptr, ptr %13, align 8, !tbaa !42
  %15 = icmp ne ptr %14, null
  br i1 %15, label %16, label %24

16:                                               ; preds = %11
  %17 = load ptr, ptr %3, align 8, !tbaa !38
  %18 = getelementptr inbounds nuw %struct.Vec_Ptr_t_, ptr %17, i32 0, i32 2
  %19 = load ptr, ptr %18, align 8, !tbaa !42
  %20 = load i32, ptr %4, align 4, !tbaa !37
  %21 = sext i32 %20 to i64
  %22 = mul i64 8, %21
  %23 = call ptr @realloc(ptr noundef %19, i64 noundef %22) #13
  br label %29

24:                                               ; preds = %11
  %25 = load i32, ptr %4, align 4, !tbaa !37
  %26 = sext i32 %25 to i64
  %27 = mul i64 8, %26
  %28 = call noalias ptr @malloc(i64 noundef %27) #11
  br label %29

29:                                               ; preds = %24, %16
  %30 = phi ptr [ %23, %16 ], [ %28, %24 ]
  %31 = load ptr, ptr %3, align 8, !tbaa !38
  %32 = getelementptr inbounds nuw %struct.Vec_Ptr_t_, ptr %31, i32 0, i32 2
  store ptr %30, ptr %32, align 8, !tbaa !42
  %33 = load i32, ptr %4, align 4, !tbaa !37
  %34 = load ptr, ptr %3, align 8, !tbaa !38
  %35 = getelementptr inbounds nuw %struct.Vec_Ptr_t_, ptr %34, i32 0, i32 0
  store i32 %33, ptr %35, align 8, !tbaa !41
  br label %36

36:                                               ; preds = %29, %10
  ret void
}

; Function Attrs: inlinehint nounwind uwtable
define internal i32 @Cut_TruthWords(i32 noundef %0) #4 {
  %2 = alloca i32, align 4
  store i32 %0, ptr %2, align 4, !tbaa !37
  %3 = load i32, ptr %2, align 4, !tbaa !37
  %4 = icmp sle i32 %3, 5
  br i1 %4, label %5, label %6

5:                                                ; preds = %1
  br label %10

6:                                                ; preds = %1
  %7 = load i32, ptr %2, align 4, !tbaa !37
  %8 = sub nsw i32 %7, 5
  %9 = shl i32 1, %8
  br label %10

10:                                               ; preds = %6, %5
  %11 = phi i32 [ 1, %5 ], [ %9, %6 ]
  ret i32 %11
}

; Function Attrs: inlinehint nounwind uwtable
define internal void @Vec_PtrFill(ptr noundef %0, i32 noundef %1, ptr noundef %2) #4 {
  %4 = alloca ptr, align 8
  %5 = alloca i32, align 4
  %6 = alloca ptr, align 8
  %7 = alloca i32, align 4
  store ptr %0, ptr %4, align 8, !tbaa !38
  store i32 %1, ptr %5, align 4, !tbaa !37
  store ptr %2, ptr %6, align 8, !tbaa !43
  call void @llvm.lifetime.start.p0(i64 4, ptr %7) #10
  %8 = load ptr, ptr %4, align 8, !tbaa !38
  %9 = load i32, ptr %5, align 4, !tbaa !37
  call void @Vec_PtrGrow(ptr noundef %8, i32 noundef %9)
  store i32 0, ptr %7, align 4, !tbaa !37
  br label %10

10:                                               ; preds = %22, %3
  %11 = load i32, ptr %7, align 4, !tbaa !37
  %12 = load i32, ptr %5, align 4, !tbaa !37
  %13 = icmp slt i32 %11, %12
  br i1 %13, label %14, label %25

14:                                               ; preds = %10
  %15 = load ptr, ptr %6, align 8, !tbaa !43
  %16 = load ptr, ptr %4, align 8, !tbaa !38
  %17 = getelementptr inbounds nuw %struct.Vec_Ptr_t_, ptr %16, i32 0, i32 2
  %18 = load ptr, ptr %17, align 8, !tbaa !42
  %19 = load i32, ptr %7, align 4, !tbaa !37
  %20 = sext i32 %19 to i64
  %21 = getelementptr inbounds ptr, ptr %18, i64 %20
  store ptr %15, ptr %21, align 8, !tbaa !43
  br label %22

22:                                               ; preds = %14
  %23 = load i32, ptr %7, align 4, !tbaa !37
  %24 = add nsw i32 %23, 1
  store i32 %24, ptr %7, align 4, !tbaa !37
  br label %10, !llvm.loop !44

25:                                               ; preds = %10
  %26 = load i32, ptr %5, align 4, !tbaa !37
  %27 = load ptr, ptr %4, align 8, !tbaa !38
  %28 = getelementptr inbounds nuw %struct.Vec_Ptr_t_, ptr %27, i32 0, i32 1
  store i32 %26, ptr %28, align 4, !tbaa !39
  call void @llvm.lifetime.end.p0(i64 4, ptr %7) #10
  ret void
}

; Function Attrs: inlinehint nounwind uwtable
define internal ptr @Vec_PtrAlloc(i32 noundef %0) #4 {
  %2 = alloca i32, align 4
  %3 = alloca ptr, align 8
  store i32 %0, ptr %2, align 4, !tbaa !37
  call void @llvm.lifetime.start.p0(i64 8, ptr %3) #10
  %4 = call noalias ptr @malloc(i64 noundef 16) #11
  store ptr %4, ptr %3, align 8, !tbaa !38
  %5 = load i32, ptr %2, align 4, !tbaa !37
  %6 = icmp sgt i32 %5, 0
  br i1 %6, label %7, label %11

7:                                                ; preds = %1
  %8 = load i32, ptr %2, align 4, !tbaa !37
  %9 = icmp slt i32 %8, 8
  br i1 %9, label %10, label %11

10:                                               ; preds = %7
  store i32 8, ptr %2, align 4, !tbaa !37
  br label %11

11:                                               ; preds = %10, %7, %1
  %12 = load ptr, ptr %3, align 8, !tbaa !38
  %13 = getelementptr inbounds nuw %struct.Vec_Ptr_t_, ptr %12, i32 0, i32 1
  store i32 0, ptr %13, align 4, !tbaa !39
  %14 = load i32, ptr %2, align 4, !tbaa !37
  %15 = load ptr, ptr %3, align 8, !tbaa !38
  %16 = getelementptr inbounds nuw %struct.Vec_Ptr_t_, ptr %15, i32 0, i32 0
  store i32 %14, ptr %16, align 8, !tbaa !41
  %17 = load ptr, ptr %3, align 8, !tbaa !38
  %18 = getelementptr inbounds nuw %struct.Vec_Ptr_t_, ptr %17, i32 0, i32 0
  %19 = load i32, ptr %18, align 8, !tbaa !41
  %20 = icmp ne i32 %19, 0
  br i1 %20, label %21, label %28

21:                                               ; preds = %11
  %22 = load ptr, ptr %3, align 8, !tbaa !38
  %23 = getelementptr inbounds nuw %struct.Vec_Ptr_t_, ptr %22, i32 0, i32 0
  %24 = load i32, ptr %23, align 8, !tbaa !41
  %25 = sext i32 %24 to i64
  %26 = mul i64 8, %25
  %27 = call noalias ptr @malloc(i64 noundef %26) #11
  br label %29

28:                                               ; preds = %11
  br label %29

29:                                               ; preds = %28, %21
  %30 = phi ptr [ %27, %21 ], [ null, %28 ]
  %31 = load ptr, ptr %3, align 8, !tbaa !38
  %32 = getelementptr inbounds nuw %struct.Vec_Ptr_t_, ptr %31, i32 0, i32 2
  store ptr %30, ptr %32, align 8, !tbaa !42
  %33 = load ptr, ptr %3, align 8, !tbaa !38
  call void @llvm.lifetime.end.p0(i64 8, ptr %3) #10
  ret ptr %33
}

; Function Attrs: nounwind uwtable
define ptr @Cut_OracleStart(ptr noundef %0) #0 {
  %2 = alloca ptr, align 8
  %3 = alloca ptr, align 8
  store ptr %0, ptr %2, align 8, !tbaa !3
  call void @llvm.lifetime.start.p0(i64 8, ptr %3) #10
  %4 = call noalias ptr @malloc(i64 noundef 104) #11
  store ptr %4, ptr %3, align 8, !tbaa !8
  %5 = load ptr, ptr %3, align 8, !tbaa !8
  call void @llvm.memset.p0.i64(ptr align 8 %5, i8 0, i64 104, i1 false)
  %6 = load ptr, ptr %2, align 8, !tbaa !3
  %7 = getelementptr inbounds nuw %struct.Cut_ManStruct_t_, ptr %6, i32 0, i32 0
  %8 = load ptr, ptr %7, align 8, !tbaa !10
  %9 = load ptr, ptr %3, align 8, !tbaa !8
  %10 = getelementptr inbounds nuw %struct.Cut_OracleStruct_t_, ptr %9, i32 0, i32 0
  store ptr %8, ptr %10, align 8, !tbaa !19
  %11 = load ptr, ptr %2, align 8, !tbaa !3
  %12 = getelementptr inbounds nuw %struct.Cut_ManStruct_t_, ptr %11, i32 0, i32 20
  %13 = load ptr, ptr %12, align 8, !tbaa !21
  %14 = load ptr, ptr %3, align 8, !tbaa !8
  %15 = getelementptr inbounds nuw %struct.Cut_OracleStruct_t_, ptr %14, i32 0, i32 6
  store ptr %13, ptr %15, align 8, !tbaa !22
  %16 = load ptr, ptr %2, align 8, !tbaa !3
  %17 = getelementptr inbounds nuw %struct.Cut_ManStruct_t_, ptr %16, i32 0, i32 20
  store ptr null, ptr %17, align 8, !tbaa !21
  %18 = load ptr, ptr %2, align 8, !tbaa !3
  %19 = getelementptr inbounds nuw %struct.Cut_ManStruct_t_, ptr %18, i32 0, i32 21
  %20 = load ptr, ptr %19, align 8, !tbaa !23
  %21 = load ptr, ptr %3, align 8, !tbaa !8
  %22 = getelementptr inbounds nuw %struct.Cut_OracleStruct_t_, ptr %21, i32 0, i32 7
  store ptr %20, ptr %22, align 8, !tbaa !24
  %23 = load ptr, ptr %2, align 8, !tbaa !3
  %24 = getelementptr inbounds nuw %struct.Cut_ManStruct_t_, ptr %23, i32 0, i32 21
  store ptr null, ptr %24, align 8, !tbaa !23
  %25 = load ptr, ptr %2, align 8, !tbaa !3
  %26 = getelementptr inbounds nuw %struct.Cut_ManStruct_t_, ptr %25, i32 0, i32 22
  %27 = load ptr, ptr %26, align 8, !tbaa !25
  %28 = load ptr, ptr %3, align 8, !tbaa !8
  %29 = getelementptr inbounds nuw %struct.Cut_OracleStruct_t_, ptr %28, i32 0, i32 8
  store ptr %27, ptr %29, align 8, !tbaa !26
  %30 = load ptr, ptr %2, align 8, !tbaa !3
  %31 = getelementptr inbounds nuw %struct.Cut_ManStruct_t_, ptr %30, i32 0, i32 22
  store ptr null, ptr %31, align 8, !tbaa !25
  %32 = load ptr, ptr %3, align 8, !tbaa !8
  %33 = getelementptr inbounds nuw %struct.Cut_OracleStruct_t_, ptr %32, i32 0, i32 0
  %34 = load ptr, ptr %33, align 8, !tbaa !19
  %35 = getelementptr inbounds nuw %struct.Cut_ParamsStruct_t_, ptr %34, i32 0, i32 2
  %36 = load i32, ptr %35, align 4, !tbaa !27
  %37 = call ptr @Vec_PtrAlloc(i32 noundef %36)
  %38 = load ptr, ptr %3, align 8, !tbaa !8
  %39 = getelementptr inbounds nuw %struct.Cut_OracleStruct_t_, ptr %38, i32 0, i32 3
  store ptr %37, ptr %39, align 8, !tbaa !29
  %40 = load ptr, ptr %3, align 8, !tbaa !8
  %41 = getelementptr inbounds nuw %struct.Cut_OracleStruct_t_, ptr %40, i32 0, i32 3
  %42 = load ptr, ptr %41, align 8, !tbaa !29
  %43 = load ptr, ptr %3, align 8, !tbaa !8
  %44 = getelementptr inbounds nuw %struct.Cut_OracleStruct_t_, ptr %43, i32 0, i32 0
  %45 = load ptr, ptr %44, align 8, !tbaa !19
  %46 = getelementptr inbounds nuw %struct.Cut_ParamsStruct_t_, ptr %45, i32 0, i32 2
  %47 = load i32, ptr %46, align 4, !tbaa !27
  call void @Vec_PtrFill(ptr noundef %42, i32 noundef %47, ptr noundef null)
  %48 = call ptr @Vec_PtrAlloc(i32 noundef 100)
  %49 = load ptr, ptr %3, align 8, !tbaa !8
  %50 = getelementptr inbounds nuw %struct.Cut_OracleStruct_t_, ptr %49, i32 0, i32 4
  store ptr %48, ptr %50, align 8, !tbaa !30
  %51 = call ptr @Vec_PtrAlloc(i32 noundef 100)
  %52 = load ptr, ptr %3, align 8, !tbaa !8
  %53 = getelementptr inbounds nuw %struct.Cut_OracleStruct_t_, ptr %52, i32 0, i32 5
  store ptr %51, ptr %53, align 8, !tbaa !31
  %54 = load ptr, ptr %3, align 8, !tbaa !8
  %55 = getelementptr inbounds nuw %struct.Cut_OracleStruct_t_, ptr %54, i32 0, i32 0
  %56 = load ptr, ptr %55, align 8, !tbaa !19
  %57 = getelementptr inbounds nuw %struct.Cut_ParamsStruct_t_, ptr %56, i32 0, i32 0
  %58 = load i32, ptr %57, align 4, !tbaa !32
  %59 = sext i32 %58 to i64
  %60 = mul i64 %59, 4
  %61 = add i64 24, %60
  %62 = trunc i64 %61 to i32
  %63 = load ptr, ptr %3, align 8, !tbaa !8
  %64 = getelementptr inbounds nuw %struct.Cut_OracleStruct_t_, ptr %63, i32 0, i32 10
  store i32 %62, ptr %64, align 8, !tbaa !33
  %65 = load ptr, ptr %3, align 8, !tbaa !8
  %66 = getelementptr inbounds nuw %struct.Cut_OracleStruct_t_, ptr %65, i32 0, i32 0
  %67 = load ptr, ptr %66, align 8, !tbaa !19
  %68 = getelementptr inbounds nuw %struct.Cut_ParamsStruct_t_, ptr %67, i32 0, i32 5
  %69 = load i32, ptr %68, align 4, !tbaa !34
  %70 = icmp ne i32 %69, 0
  br i1 %70, label %71, label %105

71:                                               ; preds = %1
  %72 = load ptr, ptr %3, align 8, !tbaa !8
  %73 = getelementptr inbounds nuw %struct.Cut_OracleStruct_t_, ptr %72, i32 0, i32 0
  %74 = load ptr, ptr %73, align 8, !tbaa !19
  %75 = getelementptr inbounds nuw %struct.Cut_ParamsStruct_t_, ptr %74, i32 0, i32 0
  %76 = load i32, ptr %75, align 4, !tbaa !32
  %77 = icmp sgt i32 %76, 8
  br i1 %77, label %78, label %84

78:                                               ; preds = %71
  %79 = load ptr, ptr %3, align 8, !tbaa !8
  %80 = getelementptr inbounds nuw %struct.Cut_OracleStruct_t_, ptr %79, i32 0, i32 0
  %81 = load ptr, ptr %80, align 8, !tbaa !19
  %82 = getelementptr inbounds nuw %struct.Cut_ParamsStruct_t_, ptr %81, i32 0, i32 5
  store i32 0, ptr %82, align 4, !tbaa !34
  %83 = call i32 (ptr, ...) @printf(ptr noundef @.str)
  br label %104

84:                                               ; preds = %71
  %85 = load ptr, ptr %3, align 8, !tbaa !8
  %86 = getelementptr inbounds nuw %struct.Cut_OracleStruct_t_, ptr %85, i32 0, i32 0
  %87 = load ptr, ptr %86, align 8, !tbaa !19
  %88 = getelementptr inbounds nuw %struct.Cut_ParamsStruct_t_, ptr %87, i32 0, i32 0
  %89 = load i32, ptr %88, align 4, !tbaa !32
  %90 = call i32 @Cut_TruthWords(i32 noundef %89)
  %91 = load ptr, ptr %3, align 8, !tbaa !8
  %92 = getelementptr inbounds nuw %struct.Cut_OracleStruct_t_, ptr %91, i32 0, i32 11
  store i32 %90, ptr %92, align 4, !tbaa !35
  %93 = load ptr, ptr %3, align 8, !tbaa !8
  %94 = getelementptr inbounds nuw %struct.Cut_OracleStruct_t_, ptr %93, i32 0, i32 11
  %95 = load i32, ptr %94, align 4, !tbaa !35
  %96 = sext i32 %95 to i64
  %97 = mul i64 %96, 4
  %98 = load ptr, ptr %3, align 8, !tbaa !8
  %99 = getelementptr inbounds nuw %struct.Cut_OracleStruct_t_, ptr %98, i32 0, i32 10
  %100 = load i32, ptr %99, align 8, !tbaa !33
  %101 = sext i32 %100 to i64
  %102 = add i64 %101, %97
  %103 = trunc i64 %102 to i32
  store i32 %103, ptr %99, align 8, !tbaa !33
  br label %104

104:                                              ; preds = %84, %78
  br label %105

105:                                              ; preds = %104, %1
  %106 = load ptr, ptr %3, align 8, !tbaa !8
  %107 = getelementptr inbounds nuw %struct.Cut_OracleStruct_t_, ptr %106, i32 0, i32 10
  %108 = load i32, ptr %107, align 8, !tbaa !33
  %109 = call ptr @Extra_MmFixedStart(i32 noundef %108)
  %110 = load ptr, ptr %3, align 8, !tbaa !8
  %111 = getelementptr inbounds nuw %struct.Cut_OracleStruct_t_, ptr %110, i32 0, i32 9
  store ptr %109, ptr %111, align 8, !tbaa !36
  %112 = load ptr, ptr %3, align 8, !tbaa !8
  call void @llvm.lifetime.end.p0(i64 8, ptr %3) #10
  ret ptr %112
}