; Function Attrs: nounwind uwtable
define noalias noundef ptr @Cut_OracleStart(ptr noundef captures(none) %0) local_unnamed_addr #0 {
  %calloc = tail call dereferenceable_or_null(104) ptr @calloc(i64 1, i64 104)
  %2 = load ptr, ptr %0, align 8, !tbaa !3
  store ptr %2, ptr %calloc, align 8, !tbaa !15
  %3 = getelementptr inbounds nuw i8, ptr %0, i64 176
  %4 = load ptr, ptr %3, align 8, !tbaa !17
  %5 = getelementptr inbounds nuw i8, ptr %calloc, i64 48
  store ptr %4, ptr %5, align 8, !tbaa !18
  store ptr null, ptr %3, align 8, !tbaa !17
  %6 = getelementptr inbounds nuw i8, ptr %0, i64 184
  %7 = load ptr, ptr %6, align 8, !tbaa !19
  %8 = getelementptr inbounds nuw i8, ptr %calloc, i64 56
  store ptr %7, ptr %8, align 8, !tbaa !20
  store ptr null, ptr %6, align 8, !tbaa !19
  %9 = getelementptr inbounds nuw i8, ptr %0, i64 192
  %10 = load ptr, ptr %9, align 8, !tbaa !21
  %11 = getelementptr inbounds nuw i8, ptr %calloc, i64 64
  store ptr %10, ptr %11, align 8, !tbaa !22
  store ptr null, ptr %9, align 8, !tbaa !21
  %12 = getelementptr inbounds nuw i8, ptr %2, i64 8
  %13 = load i32, ptr %12, align 4, !tbaa !23
  %14 = tail call noalias dereferenceable_or_null(16) ptr @malloc(i64 noundef 16) #16
  %15 = add i32 %13, -1
  %or.cond.i = icmp ult i32 %15, 7
  %spec.store.select.i = select i1 %or.cond.i, i32 8, i32 %13
  %16 = getelementptr inbounds nuw i8, ptr %14, i64 4
  store i32 %spec.store.select.i, ptr %14, align 8, !tbaa !25
  %.not.i = icmp eq i32 %spec.store.select.i, 0
  br i1 %.not.i, label %Vec_PtrAlloc.exit.thread, label %Vec_PtrAlloc.exit

Vec_PtrAlloc.exit:                                ; preds = %1
  %17 = sext i32 %spec.store.select.i to i64
  %18 = shl nsw i64 %17, 3
  %19 = tail call noalias ptr @malloc(i64 noundef %18) #16
  %20 = getelementptr inbounds nuw i8, ptr %14, i64 8
  store ptr %19, ptr %20, align 8, !tbaa !27
  %21 = getelementptr inbounds nuw i8, ptr %calloc, i64 24
  store ptr %14, ptr %21, align 8, !tbaa !28
  %.not.i.i = icmp slt i32 %spec.store.select.i, %13
  br i1 %.not.i.i, label %26, label %Vec_PtrGrow.exit.i

Vec_PtrAlloc.exit.thread:                         ; preds = %1
  %22 = getelementptr inbounds nuw i8, ptr %14, i64 8
  store ptr null, ptr %22, align 8, !tbaa !27
  %23 = getelementptr inbounds nuw i8, ptr %calloc, i64 24
  store ptr %14, ptr %23, align 8, !tbaa !28
  %.not.i.i30 = icmp sgt i32 %13, 0
  br i1 %.not.i.i30, label %.thread, label %Vec_PtrFill.exit

.thread:                                          ; preds = %Vec_PtrAlloc.exit.thread
  %24 = zext nneg i32 %13 to i64
  %25 = shl nuw nsw i64 %24, 3
  br label %31

26:                                               ; preds = %Vec_PtrAlloc.exit
  %.not9.i.i = icmp eq ptr %19, null
  %27 = sext i32 %13 to i64
  %28 = shl nsw i64 %27, 3
  br i1 %.not9.i.i, label %31, label %29

29:                                               ; preds = %26
  %30 = tail call ptr @realloc(ptr noundef nonnull %19, i64 noundef %28) #17
  br label %35

31:                                               ; preds = %.thread, %26
  %32 = phi i64 [ %25, %.thread ], [ %28, %26 ]
  %33 = phi ptr [ %22, %.thread ], [ %20, %26 ]
  %34 = tail call noalias ptr @malloc(i64 noundef %32) #16
  br label %35

35:                                               ; preds = %31, %29
  %36 = phi ptr [ %20, %29 ], [ %33, %31 ]
  %37 = phi ptr [ %30, %29 ], [ %34, %31 ]
  store ptr %37, ptr %36, align 8, !tbaa !27
  store i32 %13, ptr %14, align 8, !tbaa !25
  br label %Vec_PtrGrow.exit.i

Vec_PtrGrow.exit.i:                               ; preds = %35, %Vec_PtrAlloc.exit
  %38 = phi ptr [ %36, %35 ], [ %20, %Vec_PtrAlloc.exit ]
  %39 = icmp sgt i32 %13, 0
  br i1 %39, label %.lr.ph.i, label %Vec_PtrFill.exit

.lr.ph.i:                                         ; preds = %Vec_PtrGrow.exit.i
  %wide.trip.count.i = zext nneg i32 %13 to i64
  br label %40

40:                                               ; preds = %40, %.lr.ph.i
  %indvars.iv.i = phi i64 [ 0, %.lr.ph.i ], [ %indvars.iv.next.i, %40 ]
  %41 = load ptr, ptr %38, align 8, !tbaa !27
  %42 = getelementptr inbounds nuw ptr, ptr %41, i64 %indvars.iv.i
  store ptr null, ptr %42, align 8, !tbaa !29
  %indvars.iv.next.i = add nuw nsw i64 %indvars.iv.i, 1
  %exitcond.not.i = icmp eq i64 %indvars.iv.next.i, %wide.trip.count.i
  br i1 %exitcond.not.i, label %Vec_PtrFill.exit, label %40, !llvm.loop !30

Vec_PtrFill.exit:                                 ; preds = %40, %Vec_PtrAlloc.exit.thread, %Vec_PtrGrow.exit.i
  store i32 %13, ptr %16, align 4, !tbaa !32
  %43 = tail call noalias dereferenceable_or_null(16) ptr @malloc(i64 noundef 16) #16
  %44 = getelementptr inbounds nuw i8, ptr %43, i64 4
  store i32 0, ptr %44, align 4, !tbaa !32
  store i32 100, ptr %43, align 8, !tbaa !25
  %45 = tail call noalias dereferenceable_or_null(800) ptr @malloc(i64 noundef 800) #16
  %46 = getelementptr inbounds nuw i8, ptr %43, i64 8
  store ptr %45, ptr %46, align 8, !tbaa !27
  %47 = getelementptr inbounds nuw i8, ptr %calloc, i64 32
  store ptr %43, ptr %47, align 8, !tbaa !33
  %48 = tail call noalias dereferenceable_or_null(16) ptr @malloc(i64 noundef 16) #16
  %49 = getelementptr inbounds nuw i8, ptr %48, i64 4
  store i32 0, ptr %49, align 4, !tbaa !32
  store i32 100, ptr %48, align 8, !tbaa !25
  %50 = tail call noalias dereferenceable_or_null(800) ptr @malloc(i64 noundef 800) #16
  %51 = getelementptr inbounds nuw i8, ptr %48, i64 8
  store ptr %50, ptr %51, align 8, !tbaa !27
  %52 = getelementptr inbounds nuw i8, ptr %calloc, i64 40
  store ptr %48, ptr %52, align 8, !tbaa !34
  %53 = load i32, ptr %2, align 4, !tbaa !35
  %54 = shl i32 %53, 2
  %55 = add i32 %54, 24
  %56 = getelementptr inbounds nuw i8, ptr %calloc, i64 80
  store i32 %55, ptr %56, align 8, !tbaa !36
  %57 = getelementptr inbounds nuw i8, ptr %2, i64 20
  %58 = load i32, ptr %57, align 4, !tbaa !37
  %.not = icmp eq i32 %58, 0
  br i1 %.not, label %71, label %59

59:                                               ; preds = %Vec_PtrFill.exit
  %60 = icmp sgt i32 %53, 8
  br i1 %60, label %61, label %62

61:                                               ; preds = %59
  store i32 0, ptr %57, align 4, !tbaa !37
  %puts = tail call i32 @puts(ptr nonnull dereferenceable(1) @str)
  br label %71

62:                                               ; preds = %59
  %63 = icmp slt i32 %53, 6
  %64 = add nsw i32 %53, -5
  %65 = shl nuw nsw i32 1, %64
  %66 = select i1 %63, i32 1, i32 %65
  %67 = getelementptr inbounds nuw i8, ptr %calloc, i64 84
  store i32 %66, ptr %67, align 4, !tbaa !38
  %68 = add nsw i32 %66, %53
  %69 = shl i32 %68, 2
  %70 = add i32 %69, 24
  store i32 %70, ptr %56, align 8, !tbaa !36
  br label %71

71:                                               ; preds = %61, %62, %Vec_PtrFill.exit
  %72 = phi i32 [ %55, %61 ], [ %70, %62 ], [ %55, %Vec_PtrFill.exit ]
  %73 = tail call ptr @Extra_MmFixedStart(i32 noundef %72) #18
  %74 = getelementptr inbounds nuw i8, ptr %calloc, i64 72
  store ptr %73, ptr %74, align 8, !tbaa !39
  ret ptr %calloc
}